target datalayout = "e-m:e-p270:32:32-p271:32:32-p272:64:64-i64:64-i128:128-f80:128-n8:16:32:64-S128"
target triple = "x86_64-pc-linux-gnu"

%struct.H5HF_hdr_t = type { %struct.H5C_cache_entry_t, i32, i32, i8, i8, i8, i8, %struct.H5HF_dtable_t, i64, i64, i32, i64, i64, %struct.H5O_pline_t, i64, i32, i64, i64, i64, i64, i64, i64, i64, i64, i64, i64, i64, i32, ptr, i64, i8, i8, i8, ptr, i32, ptr, %struct.H5HF_block_iter_t, ptr, i64, i8, i8, i64, i8, i8, i8, i8 }
%struct.H5C_cache_entry_t = type { ptr, i64, i64, ptr, i8, ptr, i8, i8, i8, i8, i32, i8, i8, i8, i8, i8, i32, ptr, i32, i32, i32, i32, i32, i8, i8, ptr, ptr, ptr, ptr, ptr, ptr, i8, i32, i8, i64, ptr, i64, i64, i32, i8, i32, i32, i8, ptr, ptr, ptr }
%struct.H5HF_dtable_t = type { %struct.H5HF_dtable_cparam_t, i64, i32, i32, i32, i32, i32, i32, i32, i64, ptr, ptr, ptr, ptr }
%struct.H5HF_dtable_cparam_t = type { i32, i64, i64, i32, i32 }
%struct.H5O_pline_t = type { %struct.H5O_shared_t, i32, i64, i64, ptr }
%struct.H5O_shared_t = type { i32, ptr, i32, %union.anon }
%union.anon = type { %struct.H5O_mesg_loc_t }
%struct.H5O_mesg_loc_t = type { i32, i64 }
%struct.H5HF_block_iter_t = type { i8, ptr }

@H5HF_init_g = external global i8, align 1
@H5_libterm_g = external global i8, align 1
@.str = private unnamed_addr constant [102 x i8] c"generated/home/dtcxzyw/WorkSpace/Projects/compilers/llvm-opt-benchmark/bench/hdf5/hdf5/src/H5HFhuge.c\00", align 1
@H5E_HEAP_g = external global i64, align 8
@H5E_CANTDIRTY_g = external global i64, align 8
@.str.9 = private unnamed_addr constant [32 x i8] c"can't mark heap header as dirty\00", align 1
@__func__.H5HF__huge_term = private unnamed_addr constant [16 x i8] c"H5HF__huge_term\00", align 1
@H5E_CANTCLOSEOBJ_g = external global i64, align 8
@.str.15 = private unnamed_addr constant [22 x i8] c"can't close v2 B-tree\00", align 1
@H5E_CANTDELETE_g = external global i64, align 8
@.str.16 = private unnamed_addr constant [23 x i8] c"can't delete v2 B-tree\00", align 1

; Function Attrs: nounwind uwtable
define i32 @H5HF__huge_term(ptr noundef %0) #0 {
  %2 = alloca ptr, align 8
  %3 = alloca i32, align 4
  %4 = alloca i8, align 1
  store ptr %0, ptr %2, align 8, !tbaa !3
  call void @llvm.lifetime.start.p0(i64 4, ptr %3) #6
  store i32 0, ptr %3, align 4, !tbaa !45
  call void @llvm.lifetime.start.p0(i64 1, ptr %4) #6
  store i8 0, ptr %4, align 1, !tbaa !8
  %5 = load i8, ptr @H5HF_init_g, align 1, !tbaa !8, !range !10, !noundef !11
  %6 = trunc i8 %5 to i1
  br i1 %6, label %11, label %7

7:                                                ; preds = %1
  %8 = load i8, ptr @H5_libterm_g, align 1, !tbaa !8, !range !10, !noundef !11
  %9 = trunc i8 %8 to i1
  %10 = xor i1 %9, true
  br label %11

11:                                               ; preds = %7, %1
  %12 = phi i1 [ true, %1 ], [ %10, %7 ]
  %13 = xor i1 %12, true
  %14 = xor i1 %13, true
  %15 = zext i1 %14 to i32
  %16 = sext i32 %15 to i64
  %17 = call i64 @llvm.expect.i64(i64 %16, i64 1)
  %18 = icmp ne i64 %17, 0
  br i1 %18, label %19, label %125

19:                                               ; preds = %11
  %20 = load ptr, ptr %2, align 8, !tbaa !3
  %21 = getelementptr inbounds nuw %struct.H5HF_hdr_t, ptr %20, i32 0, i32 37
  %22 = load ptr, ptr %21, align 8, !tbaa !40
  %23 = icmp ne ptr %22, null
  br i1 %23, label %24, label %52

24:                                               ; preds = %19
  %25 = load ptr, ptr %2, align 8, !tbaa !3
  %26 = getelementptr inbounds nuw %struct.H5HF_hdr_t, ptr %25, i32 0, i32 37
  %27 = load ptr, ptr %26, align 8, !tbaa !40
  %28 = call i32 @H5B2_close(ptr noundef %27)
  %29 = icmp slt i32 %28, 0
  br i1 %29, label %30, label %49

30:                                               ; preds = %24
  br label %31

31:                                               ; preds = %30
  br label %32

32:                                               ; preds = %31
  br label %33

33:                                               ; preds = %32
  %34 = load i64, ptr @H5E_HEAP_g, align 8, !tbaa !41
  %35 = load i64, ptr @H5E_CANTCLOSEOBJ_g, align 8, !tbaa !41
  %36 = call i32 (ptr, ptr, i32, i64, i64, ptr, ...) @H5E_printf_stack(ptr noundef @.str, ptr noundef @__func__.H5HF__huge_term, i32 noundef 1056, i64 noundef %34, i64 noundef %35, ptr noundef @.str.15)
  br label %37

37:                                               ; preds = %33
  br label %38

38:                                               ; preds = %37
  store i8 1, ptr %4, align 1, !tbaa !8
  %39 = load i8, ptr %4, align 1, !tbaa !8, !range !10, !noundef !11
  %40 = trunc i8 %39 to i1
  %41 = zext i1 %40 to i8
  store i8 %41, ptr %4, align 1, !tbaa !8
  br label %42

42:                                               ; preds = %38
  br label %43

43:                                               ; preds = %42
  br label %44

44:                                               ; preds = %43
  store i32 -1, ptr %3, align 4, !tbaa !45
  br label %124

45:                                               ; No predecessors!
  br label %46

46:                                               ; preds = %45
  br label %47

47:                                               ; preds = %46
  br label %48

48:                                               ; preds = %47
  br label %49

49:                                               ; preds = %48, %24
  %50 = load ptr, ptr %2, align 8, !tbaa !3
  %51 = getelementptr inbounds nuw %struct.H5HF_hdr_t, ptr %50, i32 0, i32 37
  store ptr null, ptr %51, align 8, !tbaa !40
  br label %52

52:                                               ; preds = %49, %19
  %53 = load ptr, ptr %2, align 8, !tbaa !3
  %54 = getelementptr inbounds nuw %struct.H5HF_hdr_t, ptr %53, i32 0, i32 12
  %55 = load i64, ptr %54, align 8, !tbaa !46
  %56 = icmp ne i64 %55, -1
  br i1 %56, label %57, label %123

57:                                               ; preds = %52
  %58 = load ptr, ptr %2, align 8, !tbaa !3
  %59 = getelementptr inbounds nuw %struct.H5HF_hdr_t, ptr %58, i32 0, i32 21
  %60 = load i64, ptr %59, align 8, !tbaa !79
  %61 = icmp eq i64 %60, 0
  br i1 %61, label %62, label %123

62:                                               ; preds = %57
  %63 = load ptr, ptr %2, align 8, !tbaa !3
  %64 = getelementptr inbounds nuw %struct.H5HF_hdr_t, ptr %63, i32 0, i32 28
  %65 = load ptr, ptr %64, align 8, !tbaa !47
  %66 = load ptr, ptr %2, align 8, !tbaa !3
  %67 = getelementptr inbounds nuw %struct.H5HF_hdr_t, ptr %66, i32 0, i32 12
  %68 = load i64, ptr %67, align 8, !tbaa !46
  %69 = load ptr, ptr %2, align 8, !tbaa !3
  %70 = getelementptr inbounds nuw %struct.H5HF_hdr_t, ptr %69, i32 0, i32 28
  %71 = load ptr, ptr %70, align 8, !tbaa !47
  %72 = call i32 @H5B2_delete(ptr noundef %65, i64 noundef %68, ptr noundef %71, ptr noundef null, ptr noundef null)
  %73 = icmp slt i32 %72, 0
  br i1 %73, label %74, label %93

74:                                               ; preds = %62
  br label %75

75:                                               ; preds = %74
  br label %76

76:                                               ; preds = %75
  br label %77

77:                                               ; preds = %76
  %78 = load i64, ptr @H5E_HEAP_g, align 8, !tbaa !41
  %79 = load i64, ptr @H5E_CANTDELETE_g, align 8, !tbaa !41
  %80 = call i32 (ptr, ptr, i32, i64, i64, ptr, ...) @H5E_printf_stack(ptr noundef @.str, ptr noundef @__func__.H5HF__huge_term, i32 noundef 1070, i64 noundef %78, i64 noundef %79, ptr noundef @.str.16)
  br label %81

81:                                               ; preds = %77
  br label %82

82:                                               ; preds = %81
  store i8 1, ptr %4, align 1, !tbaa !8
  %83 = load i8, ptr %4, align 1, !tbaa !8, !range !10, !noundef !11
  %84 = trunc i8 %83 to i1
  %85 = zext i1 %84 to i8
  store i8 %85, ptr %4, align 1, !tbaa !8
  br label %86

86:                                               ; preds = %82
  br label %87

87:                                               ; preds = %86
  br label %88

88:                                               ; preds = %87
  store i32 -1, ptr %3, align 4, !tbaa !45
  br label %124

89:                                               ; No predecessors!
  br label %90

90:                                               ; preds = %89
  br label %91

91:                                               ; preds = %90
  br label %92

92:                                               ; preds = %91
  br label %93

93:                                               ; preds = %92, %62
  %94 = load ptr, ptr %2, align 8, !tbaa !3
  %95 = getelementptr inbounds nuw %struct.H5HF_hdr_t, ptr %94, i32 0, i32 12
  store i64 -1, ptr %95, align 8, !tbaa !46
  %96 = load ptr, ptr %2, align 8, !tbaa !3
  %97 = getelementptr inbounds nuw %struct.H5HF_hdr_t, ptr %96, i32 0, i32 11
  store i64 0, ptr %97, align 8, !tbaa !88
  %98 = load ptr, ptr %2, align 8, !tbaa !3
  %99 = getelementptr inbounds nuw %struct.H5HF_hdr_t, ptr %98, i32 0, i32 5
  store i8 0, ptr %99, align 2, !tbaa !87
  %100 = load ptr, ptr %2, align 8, !tbaa !3
  %101 = call i32 @H5HF__hdr_dirty(ptr noundef %100)
  %102 = icmp slt i32 %101, 0
  br i1 %102, label %103, label %122

103:                                              ; preds = %93
  br label %104

104:                                              ; preds = %103
  br label %105

105:                                              ; preds = %104
  br label %106

106:                                              ; preds = %105
  %107 = load i64, ptr @H5E_HEAP_g, align 8, !tbaa !41
  %108 = load i64, ptr @H5E_CANTDIRTY_g, align 8, !tbaa !41
  %109 = call i32 (ptr, ptr, i32, i64, i64, ptr, ...) @H5E_printf_stack(ptr noundef @.str, ptr noundef @__func__.H5HF__huge_term, i32 noundef 1079, i64 noundef %107, i64 noundef %108, ptr noundef @.str.9)
  br label %110

110:                                              ; preds = %106
  br label %111

111:                                              ; preds = %110
  store i8 1, ptr %4, align 1, !tbaa !8
  %112 = load i8, ptr %4, align 1, !tbaa !8, !range !10, !noundef !11
  %113 = trunc i8 %112 to i1
  %114 = zext i1 %113 to i8
  store i8 %114, ptr %4, align 1, !tbaa !8
  br label %115

115:                                              ; preds = %111
  br label %116

116:                                              ; preds = %115
  br label %117

117:                                              ; preds = %116
  store i32 -1, ptr %3, align 4, !tbaa !45
  br label %124

118:                                              ; No predecessors!
  br label %119

119:                                              ; preds = %118
  br label %120

120:                                              ; preds = %119
  br label %121

121:                                              ; preds = %120
  br label %122

122:                                              ; preds = %121, %93
  br label %123

123:                                              ; preds = %122, %57, %52
  br label %124

124:                                              ; preds = %123, %117, %88, %44
  br label %125

125:                                              ; preds = %124, %11
  %126 = load i32, ptr %3, align 4, !tbaa !45
  call void @llvm.lifetime.end.p0(i64 1, ptr %4) #6
  call void @llvm.lifetime.end.p0(i64 4, ptr %3) #6
  ret i32 %126
}