; Function Attrs: nounwind uwtable
define range(i32 -1, 1) i32 @H5HF__huge_term(ptr noundef %0) local_unnamed_addr #1 {
  %2 = load i8, ptr @H5HF_init_g, align 1, !tbaa !3, !range !7, !noundef !8
  %3 = trunc nuw i8 %2 to i1
  %4 = load i8, ptr @H5_libterm_g, align 1, !range !7
  %5 = trunc nuw i8 %4 to i1
  %6 = xor i1 %5, true
  %7 = select i1 %3, i1 true, i1 %6
  br i1 %7, label %8, label %44, !prof !9

8:                                                ; preds = %1
  %9 = getelementptr inbounds nuw i8, ptr %0, i64 664
  %10 = load ptr, ptr %9, align 8, !tbaa !39
  %.not = icmp eq ptr %10, null
  br i1 %.not, label %19, label %11

11:                                               ; preds = %8
  %12 = tail call i32 @H5B2_close(ptr noundef nonnull %10) #6
  %13 = icmp slt i32 %12, 0
  br i1 %13, label %14, label %18

14:                                               ; preds = %11
  %15 = load i64, ptr @H5E_HEAP_g, align 8, !tbaa !52
  %16 = load i64, ptr @H5E_CANTCLOSEOBJ_g, align 8, !tbaa !52
  %17 = tail call i32 (ptr, ptr, i32, i64, i64, ptr, ...) @H5E_printf_stack(ptr noundef nonnull @.str, ptr noundef nonnull @__func__.H5HF__huge_term, i32 noundef 1056, i64 noundef %15, i64 noundef %16, ptr noundef nonnull @.str.15) #6
  br label %44

18:                                               ; preds = %11
  store ptr null, ptr %9, align 8, !tbaa !39
  br label %19

19:                                               ; preds = %18, %8
  %20 = getelementptr inbounds nuw i8, ptr %0, i64 408
  %21 = load i64, ptr %20, align 8, !tbaa !43
  %.not17 = icmp eq i64 %21, -1
  br i1 %.not17, label %44, label %22

22:                                               ; preds = %19
  %23 = getelementptr inbounds nuw i8, ptr %0, i64 544
  %24 = load i64, ptr %23, align 8, !tbaa !81
  %25 = icmp eq i64 %24, 0
  br i1 %25, label %26, label %44

26:                                               ; preds = %22
  %27 = getelementptr inbounds nuw i8, ptr %0, i64 600
  %28 = load ptr, ptr %27, align 8, !tbaa !51
  %29 = tail call i32 @H5B2_delete(ptr noundef %28, i64 noundef %21, ptr noundef %28, ptr noundef null, ptr noundef null) #6
  %30 = icmp slt i32 %29, 0
  br i1 %30, label %31, label %35

31:                                               ; preds = %26
  %32 = load i64, ptr @H5E_HEAP_g, align 8, !tbaa !52
  %33 = load i64, ptr @H5E_CANTDELETE_g, align 8, !tbaa !52
  %34 = tail call i32 (ptr, ptr, i32, i64, i64, ptr, ...) @H5E_printf_stack(ptr noundef nonnull @.str, ptr noundef nonnull @__func__.H5HF__huge_term, i32 noundef 1070, i64 noundef %32, i64 noundef %33, ptr noundef nonnull @.str.16) #6
  br label %44

35:                                               ; preds = %26
  store i64 -1, ptr %20, align 8, !tbaa !43
  %36 = getelementptr inbounds nuw i8, ptr %0, i64 400
  store i64 0, ptr %36, align 8, !tbaa !68
  %37 = getelementptr inbounds nuw i8, ptr %0, i64 258
  store i8 0, ptr %37, align 2, !tbaa !67
  %38 = tail call i32 @H5HF__hdr_dirty(ptr noundef nonnull %0) #6
  %39 = icmp slt i32 %38, 0
  br i1 %39, label %40, label %44

40:                                               ; preds = %35
  %41 = load i64, ptr @H5E_HEAP_g, align 8, !tbaa !52
  %42 = load i64, ptr @H5E_CANTDIRTY_g, align 8, !tbaa !52
  %43 = tail call i32 (ptr, ptr, i32, i64, i64, ptr, ...) @H5E_printf_stack(ptr noundef nonnull @.str, ptr noundef nonnull @__func__.H5HF__huge_term, i32 noundef 1079, i64 noundef %41, i64 noundef %42, ptr noundef nonnull @.str.9) #6
  br label %44

44:                                               ; preds = %14, %31, %40, %35, %22, %19, %1
  %.0 = phi i32 [ -1, %14 ], [ -1, %31 ], [ -1, %40 ], [ 0, %35 ], [ 0, %22 ], [ 0, %19 ], [ 0, %1 ]
  ret i32 %.0
}